target datalayout = "e-m:e-p270:32:32-p271:32:32-p272:64:64-i64:64-i128:128-f80:128-n8:16:32:64-S128"
target triple = "x86_64-pc-linux-gnu"

%struct.UCPTrie = type { ptr, %union.UCPTrieData, i32, i32, i32, i16, i8, i8, i32, i16, i16, i32, i32 }
%union.UCPTrieData = type { ptr }

@.str.15 = private unnamed_addr constant [21 x i8] c"    %s,\0A    { %s },\0A\00", align 1
@.str.16 = private unnamed_addr constant [82 x i8] c"    %ld, %ld,\0A    0x%lx, 0x%x,\0A    %d, %d,\0A    0, 0,\0A    0x%x, 0x%lx,\0A    0x%lx,\0A\00", align 1
@.str.17 = private unnamed_addr constant [171 x i8] c"indexLength = %ld\0AdataLength = %ld\0AhighStart = 0x%lx\0Ashifted12HighStart = 0x%x\0Atype = %d\0AvalueWidth = %d\0Aindex3NullOffset = 0x%x\0AdataNullOffset = 0x%lx\0AnullValue = 0x%lx\0A\00", align 1

; Function Attrs: mustprogress uwtable
define void @usrc_writeUCPTrieStruct(ptr noundef %0, ptr noundef %1, ptr noundef %2, ptr noundef %3, ptr noundef %4, ptr noundef %5, i32 noundef %6) #1 {
  %8 = alloca ptr, align 8
  %9 = alloca ptr, align 8
  %10 = alloca ptr, align 8
  %11 = alloca ptr, align 8
  %12 = alloca ptr, align 8
  %13 = alloca ptr, align 8
  %14 = alloca i32, align 4
  %15 = alloca ptr, align 8
  store ptr %0, ptr %8, align 8, !tbaa !25
  store ptr %1, ptr %9, align 8, !tbaa !17
  store ptr %2, ptr %10, align 8, !tbaa !52
  store ptr %3, ptr %11, align 8, !tbaa !17
  store ptr %4, ptr %12, align 8, !tbaa !17
  store ptr %5, ptr %13, align 8, !tbaa !17
  store i32 %6, ptr %14, align 4, !tbaa !54
  %16 = load ptr, ptr %9, align 8, !tbaa !17
  %17 = icmp ne ptr %16, null
  br i1 %17, label %18, label %22

18:                                               ; preds = %7
  %19 = load ptr, ptr %9, align 8, !tbaa !17
  %20 = load ptr, ptr %8, align 8, !tbaa !25
  %21 = call i32 @fputs(ptr noundef %19, ptr noundef %20)
  br label %22

22:                                               ; preds = %18, %7
  %23 = load i32, ptr %14, align 4, !tbaa !54
  %24 = icmp eq i32 %23, 0
  br i1 %24, label %25, label %30

25:                                               ; preds = %22
  %26 = load ptr, ptr %8, align 8, !tbaa !25
  %27 = load ptr, ptr %11, align 8, !tbaa !17
  %28 = load ptr, ptr %12, align 8, !tbaa !17
  %29 = call i32 (ptr, ptr, ...) @fprintf(ptr noundef %26, ptr noundef @.str.15, ptr noundef %27, ptr noundef %28) #16
  br label %30

30:                                               ; preds = %25, %22
  call void @llvm.lifetime.start.p0(i64 8, ptr %15) #16
  %31 = load i32, ptr %14, align 4, !tbaa !54
  %32 = icmp eq i32 %31, 0
  %33 = select i1 %32, ptr @.str.16, ptr @.str.17
  store ptr %33, ptr %15, align 8, !tbaa !17
  %34 = load ptr, ptr %8, align 8, !tbaa !25
  %35 = load ptr, ptr %15, align 8, !tbaa !17
  %36 = load ptr, ptr %10, align 8, !tbaa !52
  %37 = getelementptr inbounds nuw %struct.UCPTrie, ptr %36, i32 0, i32 2
  %38 = load i32, ptr %37, align 8, !tbaa !58
  %39 = sext i32 %38 to i64
  %40 = load ptr, ptr %10, align 8, !tbaa !52
  %41 = getelementptr inbounds nuw %struct.UCPTrie, ptr %40, i32 0, i32 3
  %42 = load i32, ptr %41, align 4, !tbaa !60
  %43 = sext i32 %42 to i64
  %44 = load ptr, ptr %10, align 8, !tbaa !52
  %45 = getelementptr inbounds nuw %struct.UCPTrie, ptr %44, i32 0, i32 4
  %46 = load i32, ptr %45, align 8, !tbaa !61
  %47 = sext i32 %46 to i64
  %48 = load ptr, ptr %10, align 8, !tbaa !52
  %49 = getelementptr inbounds nuw %struct.UCPTrie, ptr %48, i32 0, i32 5
  %50 = load i16, ptr %49, align 4, !tbaa !62
  %51 = zext i16 %50 to i32
  %52 = load ptr, ptr %10, align 8, !tbaa !52
  %53 = getelementptr inbounds nuw %struct.UCPTrie, ptr %52, i32 0, i32 6
  %54 = load i8, ptr %53, align 2, !tbaa !63
  %55 = sext i8 %54 to i32
  %56 = load ptr, ptr %10, align 8, !tbaa !52
  %57 = getelementptr inbounds nuw %struct.UCPTrie, ptr %56, i32 0, i32 7
  %58 = load i8, ptr %57, align 1, !tbaa !59
  %59 = sext i8 %58 to i32
  %60 = load ptr, ptr %10, align 8, !tbaa !52
  %61 = getelementptr inbounds nuw %struct.UCPTrie, ptr %60, i32 0, i32 10
  %62 = load i16, ptr %61, align 2, !tbaa !64
  %63 = zext i16 %62 to i32
  %64 = load ptr, ptr %10, align 8, !tbaa !52
  %65 = getelementptr inbounds nuw %struct.UCPTrie, ptr %64, i32 0, i32 11
  %66 = load i32, ptr %65, align 8, !tbaa !65
  %67 = sext i32 %66 to i64
  %68 = load ptr, ptr %10, align 8, !tbaa !52
  %69 = getelementptr inbounds nuw %struct.UCPTrie, ptr %68, i32 0, i32 12
  %70 = load i32, ptr %69, align 4, !tbaa !66
  %71 = zext i32 %70 to i64
  %72 = call i32 (ptr, ptr, ...) @fprintf(ptr noundef %34, ptr noundef %35, i64 noundef %39, i64 noundef %43, i64 noundef %47, i32 noundef %51, i32 noundef %55, i32 noundef %59, i32 noundef %63, i64 noundef %67, i64 noundef %71) #16
  %73 = load ptr, ptr %13, align 8, !tbaa !17
  %74 = icmp ne ptr %73, null
  br i1 %74, label %75, label %79

75:                                               ; preds = %30
  %76 = load ptr, ptr %13, align 8, !tbaa !17
  %77 = load ptr, ptr %8, align 8, !tbaa !25
  %78 = call i32 @fputs(ptr noundef %76, ptr noundef %77)
  br label %79

79:                                               ; preds = %75, %30
  call void @llvm.lifetime.end.p0(i64 8, ptr %15) #16
  ret void
}