; Function Attrs: mustprogress nofree nounwind uwtable
define void @usrc_writeUCPTrieStruct(ptr noundef captures(none) %0, ptr noundef readonly %1, ptr noundef readonly captures(none) %2, ptr noundef %3, ptr noundef %4, ptr noundef readonly %5, i32 noundef %6) local_unnamed_addr #13 {
  %.not = icmp eq ptr %1, null
  br i1 %.not, label %10, label %8

8:                                                ; preds = %7
  %9 = tail call i32 @fputs(ptr noundef nonnull %1, ptr noundef %0)
  br label %10

10:                                               ; preds = %8, %7
  %11 = icmp eq i32 %6, 0
  br i1 %11, label %12, label %14

12:                                               ; preds = %10
  %13 = tail call i32 (ptr, ptr, ...) @fprintf(ptr noundef %0, ptr noundef nonnull @.str.15, ptr noundef %3, ptr noundef %4) #24
  br label %14

14:                                               ; preds = %12, %10
  %15 = phi ptr [ @.str.16, %12 ], [ @.str.17, %10 ]
  %16 = getelementptr inbounds nuw i8, ptr %2, i64 16
  %17 = load i32, ptr %16, align 8, !tbaa !40
  %18 = sext i32 %17 to i64
  %19 = getelementptr inbounds nuw i8, ptr %2, i64 20
  %20 = load i32, ptr %19, align 4, !tbaa !42
  %21 = sext i32 %20 to i64
  %22 = getelementptr inbounds nuw i8, ptr %2, i64 24
  %23 = load i32, ptr %22, align 8, !tbaa !43
  %24 = sext i32 %23 to i64
  %25 = getelementptr inbounds nuw i8, ptr %2, i64 28
  %26 = load i16, ptr %25, align 4, !tbaa !44
  %27 = zext i16 %26 to i32
  %28 = getelementptr inbounds nuw i8, ptr %2, i64 30
  %29 = load i8, ptr %28, align 2, !tbaa !45
  %30 = sext i8 %29 to i32
  %31 = getelementptr inbounds nuw i8, ptr %2, i64 31
  %32 = load i8, ptr %31, align 1, !tbaa !41
  %33 = sext i8 %32 to i32
  %34 = getelementptr inbounds nuw i8, ptr %2, i64 38
  %35 = load i16, ptr %34, align 2, !tbaa !46
  %36 = zext i16 %35 to i32
  %37 = getelementptr inbounds nuw i8, ptr %2, i64 40
  %38 = load i32, ptr %37, align 8, !tbaa !47
  %39 = sext i32 %38 to i64
  %40 = getelementptr inbounds nuw i8, ptr %2, i64 44
  %41 = load i32, ptr %40, align 4, !tbaa !48
  %42 = zext i32 %41 to i64
  %43 = tail call i32 (ptr, ptr, ...) @fprintf(ptr noundef %0, ptr noundef nonnull %15, i64 noundef %18, i64 noundef %21, i64 noundef %24, i32 noundef %27, i32 noundef %30, i32 noundef %33, i32 noundef %36, i64 noundef %39, i64 noundef %42) #24
  %.not22 = icmp eq ptr %5, null
  br i1 %.not22, label %46, label %44

44:                                               ; preds = %14
  %45 = tail call i32 @fputs(ptr noundef nonnull %5, ptr noundef %0)
  br label %46

46:                                               ; preds = %44, %14
  ret void
}